; ModuleID = '33/881.c'
source_filename = "33/881.c"
target datalayout = "e-m:e-p270:32:32-p271:32:32-p272:64:64-i64:64-f80:128-n8:16:32:64-S128"
target triple = "x86_64-pc-linux-gnu"

@.str = private unnamed_addr constant [3 x i8] c"%d\00", align 1
@.str.1 = private unnamed_addr constant [3 x i8] c"%s\00", align 1

; Function Attrs: noinline nounwind uwtable
define dso_local i32 @main() #0 {
  %1 = alloca i32, align 4
  %2 = alloca i32, align 4
  %3 = alloca i32, align 4
  %4 = alloca [100 x [101 x i8]], align 16
  %5 = alloca i8*, align 8
  store i32 0, i32* %1, align 4
  %6 = call i32 (i8*, ...) @__isoc99_scanf(i8* getelementptr inbounds ([3 x i8], [3 x i8]* @.str, i64 0, i64 0), i32* %3)
  store i32 0, i32* %2, align 4
  br label %7

7:                                                ; preds = %67, %0
  %8 = load i32, i32* %2, align 4
  %9 = load i32, i32* %3, align 4
  %10 = icmp slt i32 %8, %9
  br i1 %10, label %11, label %70

11:                                               ; preds = %7
  %12 = load i32, i32* %2, align 4
  %13 = sext i32 %12 to i64
  %14 = getelementptr inbounds [100 x [101 x i8]], [100 x [101 x i8]]* %4, i64 0, i64 %13
  %15 = getelementptr inbounds [101 x i8], [101 x i8]* %14, i64 0, i64 0
  %16 = call i32 (i8*, ...) @__isoc99_scanf(i8* getelementptr inbounds ([3 x i8], [3 x i8]* @.str.1, i64 0, i64 0), i8* %15)
  %17 = load i32, i32* %2, align 4
  %18 = sext i32 %17 to i64
  %19 = getelementptr inbounds [100 x [101 x i8]], [100 x [101 x i8]]* %4, i64 0, i64 %18
  %20 = getelementptr inbounds [101 x i8], [101 x i8]* %19, i64 0, i64 0
  store i8* %20, i8** %5, align 8
  br label %21

21:                                               ; preds = %58, %11
  %22 = load i8*, i8** %5, align 8
  %23 = load i8, i8* %22, align 1
  %24 = sext i8 %23 to i32
  %25 = icmp ne i32 %24, 0
  br i1 %25, label %26, label %61

26:                                               ; preds = %21
  %27 = load i8*, i8** %5, align 8
  %28 = load i8, i8* %27, align 1
  %29 = sext i8 %28 to i32
  %30 = icmp eq i32 %29, 65
  br i1 %30, label %31, label %33

31:                                               ; preds = %26
  %32 = load i8*, i8** %5, align 8
  store i8 84, i8* %32, align 1
  br label %57

33:                                               ; preds = %26
  %34 = load i8*, i8** %5, align 8
  %35 = load i8, i8* %34, align 1
  %36 = sext i8 %35 to i32
  %37 = icmp eq i32 %36, 84
  br i1 %37, label %38, label %40

38:                                               ; preds = %33
  %39 = load i8*, i8** %5, align 8
  store i8 65, i8* %39, align 1
  br label %56

40:                                               ; preds = %33
  %41 = load i8*, i8** %5, align 8
  %42 = load i8, i8* %41, align 1
  %43 = sext i8 %42 to i32
  %44 = icmp eq i32 %43, 67
  br i1 %44, label %45, label %47

45:                                               ; preds = %40
  %46 = load i8*, i8** %5, align 8
  store i8 71, i8* %46, align 1
  br label %55

47:                                               ; preds = %40
  %48 = load i8*, i8** %5, align 8
  %49 = load i8, i8* %48, align 1
  %50 = sext i8 %49 to i32
  %51 = icmp eq i32 %50, 71
  br i1 %51, label %52, label %54

52:                                               ; preds = %47
  %53 = load i8*, i8** %5, align 8
  store i8 67, i8* %53, align 1
  br label %54

54:                                               ; preds = %52, %47
  br label %55

55:                                               ; preds = %54, %45
  br label %56

56:                                               ; preds = %55, %38
  br label %57

57:                                               ; preds = %56, %31
  br label %58

58:                                               ; preds = %57
  %59 = load i8*, i8** %5, align 8
  %60 = getelementptr inbounds i8, i8* %59, i32 1
  store i8* %60, i8** %5, align 8
  br label %21

61:                                               ; preds = %21
  %62 = load i32, i32* %2, align 4
  %63 = sext i32 %62 to i64
  %64 = getelementptr inbounds [100 x [101 x i8]], [100 x [101 x i8]]* %4, i64 0, i64 %63
  %65 = getelementptr inbounds [101 x i8], [101 x i8]* %64, i64 0, i64 0
  %66 = call i32 @puts(i8* %65)
  br label %67

67:                                               ; preds = %61
  %68 = load i32, i32* %2, align 4
  %69 = add nsw i32 %68, 1
  store i32 %69, i32* %2, align 4
  br label %7

70:                                               ; preds = %7
  ret i32 0
}

declare dso_local i32 @__isoc99_scanf(i8*, ...) #1

declare dso_local i32 @puts(i8*) #1


!llvm.module.flags = !{!0}
!llvm.ident = !{!1}

!0 = !{i32 1, !"wchar_size", i32 4}
!1 = !{!"clang version 10.0.0-4ubuntu1 "}
